; Function Attrs: mustprogress uwtable
define void @_ZN6casadi8Sparsity5eraseERKSt6vectorIxSaIxEES5_b(ptr dead_on_unwind noalias writable sret(%"class.std::vector.3") align 8 %0, ptr noundef nonnull align 8 dereferenceable(8) %1, ptr noundef nonnull align 8 dereferenceable(24) %2, ptr noundef nonnull align 8 dereferenceable(24) %3, i1 noundef zeroext %4) local_unnamed_addr #3 align 2 personality ptr @__gxx_personality_v0 {
  %6 = alloca %"class.casadi::Sparsity", align 8
  tail call void @llvm.memset.p0.i64(ptr noundef nonnull align 8 dereferenceable(24) %0, i8 0, i64 24, i1 false)
  %7 = invoke noundef ptr @_ZNK6casadi12SharedObjectptEv(ptr noundef nonnull align 8 dereferenceable(8) %1)
          to label %_ZNK6casadi8SparsityptEv.exit unwind label %10

_ZNK6casadi8SparsityptEv.exit:                    ; preds = %5
  invoke void @_ZNK6casadi16SparsityInternal6_eraseERKSt6vectorIxSaIxEES5_bRS3_(ptr dead_on_unwind nonnull writable sret(%"class.casadi::Sparsity") align 8 %6, ptr noundef nonnull align 8 dereferenceable(56) %7, ptr noundef nonnull align 8 dereferenceable(24) %2, ptr noundef nonnull align 8 dereferenceable(24) %3, i1 noundef zeroext %4, ptr noundef nonnull align 8 dereferenceable(24) %0)
          to label %8 unwind label %10

8:                                                ; preds = %_ZNK6casadi8SparsityptEv.exit
  %9 = invoke noundef nonnull align 8 dereferenceable(8) ptr @_ZN6casadi12SharedObjectaSERKS0_(ptr noundef nonnull align 8 dereferenceable(8) %1, ptr noundef nonnull align 8 dereferenceable(8) %6)
          to label %_ZN6casadi8SparsityaSEOS0_.exit unwind label %12

_ZN6casadi8SparsityaSEOS0_.exit:                  ; preds = %8
  call void @_ZN6casadi12SharedObjectD2Ev(ptr noundef nonnull align 8 dereferenceable(8) %6) #24
  ret void

10:                                               ; preds = %5, %_ZNK6casadi8SparsityptEv.exit
  %11 = landingpad { ptr, i32 }
          cleanup
  br label %14

12:                                               ; preds = %8
  %13 = landingpad { ptr, i32 }
          cleanup
  call void @_ZN6casadi12SharedObjectD2Ev(ptr noundef nonnull align 8 dereferenceable(8) %6) #24
  br label %14

14:                                               ; preds = %12, %10
  %.pn = phi { ptr, i32 } [ %13, %12 ], [ %11, %10 ]
  %15 = load ptr, ptr %0, align 8
  %.not.i.i.i = icmp eq ptr %15, null
  br i1 %.not.i.i.i, label %_ZNSt6vectorIxSaIxEED2Ev.exit, label %16

16:                                               ; preds = %14
  call void @_ZdlPv(ptr noundef nonnull %15) #26
  br label %_ZNSt6vectorIxSaIxEED2Ev.exit

_ZNSt6vectorIxSaIxEED2Ev.exit:                    ; preds = %14, %16
  resume { ptr, i32 } %.pn
}